target datalayout = "e-m:e-p270:32:32-p271:32:32-p272:64:64-i64:64-i128:128-f80:128-n8:16:32:64-S128"
target triple = "x86_64-pc-linux-gnu"

%class.MemRegion = type { ptr, i64 }
%class.ShenandoahMarkBitMap = type { i32, %class.MemRegion, ptr, i64 }

; Function Attrs: mustprogress nounwind uwtable
define linkonce_odr hidden noundef i64 @_ZN20ShenandoahMarkBitMap23raw_to_words_align_downEm(i64 noundef %0) #1 comdat align 2 {
  %2 = alloca i64, align 8
  store i64 %0, ptr %2, align 8
  %3 = load i64, ptr %2, align 8
  %4 = lshr i64 %3, 6
  ret i64 %4
}

; Function Attrs: mustprogress nounwind uwtable
define linkonce_odr hidden void @_ZNK20ShenandoahMarkBitMap12verify_limitEm(ptr noundef nonnull align 8 dereferenceable(40) %0, i64 noundef %1) #1 comdat align 2 {
  %3 = alloca ptr, align 8
  %4 = alloca i64, align 8
  store ptr %0, ptr %3, align 8
  store i64 %1, ptr %4, align 8
  ret void
}

; Function Attrs: mustprogress nounwind uwtable
define linkonce_odr hidden noundef i64 @_ZNK20ShenandoahMarkBitMap19to_words_align_downEm(ptr noundef nonnull align 8 dereferenceable(40) %0, i64 noundef %1) #1 comdat align 2 {
  %3 = alloca ptr, align 8
  %4 = alloca i64, align 8
  store ptr %0, ptr %3, align 8
  store i64 %1, ptr %4, align 8
  %5 = load ptr, ptr %3, align 8
  %6 = load i64, ptr %4, align 8
  call void @_ZNK20ShenandoahMarkBitMap12verify_limitEm(ptr noundef nonnull align 8 dereferenceable(40) %5, i64 noundef %6)
  %7 = load i64, ptr %4, align 8
  %8 = call noundef i64 @_ZN20ShenandoahMarkBitMap23raw_to_words_align_downEm(i64 noundef %7)
  ret i64 %8
}

; Function Attrs: mustprogress nounwind uwtable
define linkonce_odr hidden noundef ptr @_ZN20ShenandoahMarkBitMap3mapEv(ptr noundef nonnull align 8 dereferenceable(40) %0) #1 comdat align 2 {
  %2 = alloca ptr, align 8
  store ptr %0, ptr %2, align 8
  %3 = load ptr, ptr %2, align 8
  %4 = getelementptr inbounds %class.ShenandoahMarkBitMap, ptr %3, i32 0, i32 2
  %5 = load ptr, ptr %4, align 8
  ret ptr %5
}

; Function Attrs: mustprogress nounwind uwtable
define linkonce_odr hidden noundef i64 @_ZN20ShenandoahMarkBitMap11bit_in_wordEm(i64 noundef %0) #1 comdat align 2 {
  %2 = alloca i64, align 8
  store i64 %0, ptr %2, align 8
  %3 = load i64, ptr %2, align 8
  %4 = and i64 %3, 63
  ret i64 %4
}

; Function Attrs: mustprogress nounwind uwtable
define linkonce_odr hidden noundef i64 @_ZN20ShenandoahMarkBitMap8bit_maskEm(i64 noundef %0) #1 comdat align 2 {
  %2 = alloca i64, align 8
  store i64 %0, ptr %2, align 8
  %3 = load i64, ptr %2, align 8
  %4 = call noundef i64 @_ZN20ShenandoahMarkBitMap11bit_in_wordEm(i64 noundef %3)
  %5 = shl i64 1, %4
  ret i64 %5
}

; Function Attrs: mustprogress nounwind uwtable
define linkonce_odr hidden noundef ptr @_ZN20ShenandoahMarkBitMap9word_addrEm(ptr noundef nonnull align 8 dereferenceable(40) %0, i64 noundef %1) #1 comdat align 2 {
  %3 = alloca ptr, align 8
  %4 = alloca i64, align 8
  store ptr %0, ptr %3, align 8
  store i64 %1, ptr %4, align 8
  %5 = load ptr, ptr %3, align 8
  %6 = call noundef ptr @_ZN20ShenandoahMarkBitMap3mapEv(ptr noundef nonnull align 8 dereferenceable(40) %5)
  %7 = load i64, ptr %4, align 8
  %8 = call noundef i64 @_ZNK20ShenandoahMarkBitMap19to_words_align_downEm(ptr noundef nonnull align 8 dereferenceable(40) %5, i64 noundef %7)
  %9 = getelementptr inbounds i64, ptr %6, i64 %8
  ret ptr %9
}

; Function Attrs: mustprogress nounwind uwtable
define linkonce_odr hidden noundef i64 @_ZNK20ShenandoahMarkBitMap27inverted_bit_mask_for_rangeEmm(ptr noundef nonnull align 8 dereferenceable(40) %0, i64 noundef %1, i64 noundef %2) #1 comdat align 2 {
  %4 = alloca ptr, align 8
  %5 = alloca i64, align 8
  %6 = alloca i64, align 8
  %7 = alloca i64, align 8
  store ptr %0, ptr %4, align 8
  store i64 %1, ptr %5, align 8
  store i64 %2, ptr %6, align 8
  %8 = load i64, ptr %5, align 8
  %9 = call noundef i64 @_ZN20ShenandoahMarkBitMap8bit_maskEm(i64 noundef %8)
  %10 = sub i64 %9, 1
  store i64 %10, ptr %7, align 8
  %11 = load i64, ptr %6, align 8
  %12 = call noundef i64 @_ZN20ShenandoahMarkBitMap11bit_in_wordEm(i64 noundef %11)
  %13 = icmp ne i64 %12, 0
  br i1 %13, label %14, label %21

14:                                               ; preds = %3
  %15 = load i64, ptr %6, align 8
  %16 = call noundef i64 @_ZN20ShenandoahMarkBitMap8bit_maskEm(i64 noundef %15)
  %17 = sub i64 %16, 1
  %18 = xor i64 %17, -1
  %19 = load i64, ptr %7, align 8
  %20 = or i64 %19, %18
  store i64 %20, ptr %7, align 8
  br label %21

21:                                               ; preds = %14, %3
  %22 = load i64, ptr %7, align 8
  ret i64 %22
}

; Function Attrs: mustprogress nounwind uwtable
define hidden void @_ZN20ShenandoahMarkBitMap23clear_range_within_wordEmm(ptr noundef nonnull align 8 dereferenceable(40) %0, i64 noundef %1, i64 noundef %2) #1 align 2 {
  %4 = alloca ptr, align 8
  %5 = alloca i64, align 8
  %6 = alloca i64, align 8
  %7 = alloca i64, align 8
  store ptr %0, ptr %4, align 8
  store i64 %1, ptr %5, align 8
  store i64 %2, ptr %6, align 8
  %8 = load ptr, ptr %4, align 8
  %9 = load i64, ptr %5, align 8
  %10 = load i64, ptr %6, align 8
  %11 = icmp ne i64 %9, %10
  br i1 %11, label %12, label %21

12:                                               ; preds = %3
  %13 = load i64, ptr %5, align 8
  %14 = load i64, ptr %6, align 8
  %15 = call noundef i64 @_ZNK20ShenandoahMarkBitMap27inverted_bit_mask_for_rangeEmm(ptr noundef nonnull align 8 dereferenceable(40) %8, i64 noundef %13, i64 noundef %14)
  store i64 %15, ptr %7, align 8
  %16 = load i64, ptr %7, align 8
  %17 = load i64, ptr %5, align 8
  %18 = call noundef ptr @_ZN20ShenandoahMarkBitMap9word_addrEm(ptr noundef nonnull align 8 dereferenceable(40) %8, i64 noundef %17)
  %19 = load i64, ptr %18, align 8
  %20 = and i64 %19, %16
  store i64 %20, ptr %18, align 8
  br label %21

21:                                               ; preds = %12, %3
  ret void
}