; Function Attrs: mustprogress nofree norecurse nosync nounwind willreturn memory(readwrite, inaccessiblemem: none) uwtable
define hidden void @_ZN20ShenandoahMarkBitMap23clear_range_within_wordEmm(ptr nocapture noundef nonnull readonly align 8 dereferenceable(40) %0, i64 noundef %1, i64 noundef %2) local_unnamed_addr #5 align 2 {
  %.not = icmp eq i64 %1, %2
  br i1 %.not, label %15, label %4

4:                                                ; preds = %3
  %5 = and i64 %1, 63
  %notmask.i = shl nsw i64 -1, %5
  %6 = xor i64 %notmask.i, -1
  %7 = and i64 %2, 63
  %.not.i = icmp eq i64 %7, 0
  %.neg.i = shl nsw i64 -1, %7
  %8 = select i1 %.not.i, i64 0, i64 %.neg.i
  %.0.i = or i64 %8, %6
  %9 = getelementptr inbounds i8, ptr %0, i64 24
  %10 = load ptr, ptr %9, align 8
  %11 = lshr i64 %1, 6
  %12 = getelementptr inbounds i64, ptr %10, i64 %11
  %13 = load i64, ptr %12, align 8
  %14 = and i64 %13, %.0.i
  store i64 %14, ptr %12, align 8
  br label %15

15:                                               ; preds = %4, %3
  ret void
}